target datalayout = "e-m:e-p270:32:32-p271:32:32-p272:64:64-i64:64-i128:128-f80:128-n8:16:32:64-S128"
target triple = "x86_64-pc-linux-gnu"

%struct.rb_data_type_struct = type { ptr, %struct.anon, ptr, ptr, i64 }
%struct.anon = type { ptr, ptr, ptr, ptr, [1 x ptr] }

@eEC_GROUP = internal global i64 0, align 8
@ID_uncompressed = internal global i64 0, align 8
@ID_compressed = internal global i64 0, align 8
@ID_hybrid = internal global i64 0, align 8
@ossl_ec_group_type = internal constant %struct.rb_data_type_struct { ptr @.str.61, %struct.anon { ptr null, ptr @ossl_ec_group_free, ptr null, ptr null, [1 x ptr] zeroinitializer }, ptr null, ptr null, i64 33 }, align 8
@.str.59 = private unnamed_addr constant [28 x i8] c"EC_GROUP is not initialized\00", align 1
@rb_eArgError = external global i64, align 8
@.str.91 = private unnamed_addr constant [90 x i8] c"unsupported point conversion form %+li\0B (expected :compressed, :uncompressed, or :hybrid)\00", align 1

; Function Attrs: nounwind sspstrong uwtable
define internal i32 @parse_point_conversion_form_symbol(i64 noundef %0) #0 {
  %2 = alloca i32, align 4
  %3 = alloca i64, align 8
  %4 = alloca i64, align 8
  %5 = alloca i32, align 4
  store i64 %0, ptr %3, align 8, !tbaa !6
  call void @llvm.lifetime.start.p0(i64 8, ptr %4) #19
  %6 = load i64, ptr %3, align 8, !tbaa !6
  %7 = call i64 @rb_sym2id(i64 noundef %6)
  store i64 %7, ptr %4, align 8, !tbaa !6
  %8 = load i64, ptr %4, align 8, !tbaa !6
  %9 = load i64, ptr @ID_uncompressed, align 8, !tbaa !6
  %10 = icmp eq i64 %8, %9
  br i1 %10, label %11, label %12

11:                                               ; preds = %1
  store i32 4, ptr %2, align 4
  store i32 1, ptr %5, align 4
  br label %25

12:                                               ; preds = %1
  %13 = load i64, ptr %4, align 8, !tbaa !6
  %14 = load i64, ptr @ID_compressed, align 8, !tbaa !6
  %15 = icmp eq i64 %13, %14
  br i1 %15, label %16, label %17

16:                                               ; preds = %12
  store i32 2, ptr %2, align 4
  store i32 1, ptr %5, align 4
  br label %25

17:                                               ; preds = %12
  %18 = load i64, ptr %4, align 8, !tbaa !6
  %19 = load i64, ptr @ID_hybrid, align 8, !tbaa !6
  %20 = icmp eq i64 %18, %19
  br i1 %20, label %21, label %22

21:                                               ; preds = %17
  store i32 6, ptr %2, align 4
  store i32 1, ptr %5, align 4
  br label %25

22:                                               ; preds = %17
  %23 = load i64, ptr @rb_eArgError, align 8, !tbaa !6
  %24 = load i64, ptr %3, align 8, !tbaa !6
  call void (i64, ptr, ...) @ossl_raise(i64 noundef %23, ptr noundef @.str.91, i64 noundef %24) #20
  unreachable

25:                                               ; preds = %21, %16, %11
  call void @llvm.lifetime.end.p0(i64 8, ptr %4) #19
  %26 = load i32, ptr %2, align 4
  ret i32 %26
}

; Function Attrs: nounwind sspstrong uwtable
define internal i64 @ossl_ec_group_set_point_conversion_form(i64 noundef %0, i64 noundef %1) #0 {
  %3 = alloca i64, align 8
  %4 = alloca i64, align 8
  %5 = alloca ptr, align 8
  %6 = alloca i32, align 4
  store i64 %0, ptr %3, align 8, !tbaa !6
  store i64 %1, ptr %4, align 8, !tbaa !6
  call void @llvm.lifetime.start.p0(i64 8, ptr %5) #19
  call void @llvm.lifetime.start.p0(i64 4, ptr %6) #19
  br label %7

7:                                                ; preds = %2
  %8 = load i64, ptr %3, align 8, !tbaa !6
  %9 = call ptr @rb_check_typeddata(i64 noundef %8, ptr noundef @ossl_ec_group_type)
  store ptr %9, ptr %5, align 8, !tbaa !33
  %10 = load ptr, ptr %5, align 8, !tbaa !33
  %11 = icmp eq ptr %10, null
  br i1 %11, label %12, label %14

12:                                               ; preds = %7
  %13 = load i64, ptr @eEC_GROUP, align 8, !tbaa !6
  call void (i64, ptr, ...) @ossl_raise(i64 noundef %13, ptr noundef @.str.59) #20
  unreachable

14:                                               ; preds = %7
  br label %15

15:                                               ; preds = %14
  br label %16

16:                                               ; preds = %15
  %17 = load i64, ptr %4, align 8, !tbaa !6
  %18 = call i32 @parse_point_conversion_form_symbol(i64 noundef %17)
  store i32 %18, ptr %6, align 4, !tbaa !10
  %19 = load ptr, ptr %5, align 8, !tbaa !33
  %20 = load i32, ptr %6, align 4, !tbaa !10
  call void @EC_GROUP_set_point_conversion_form(ptr noundef %19, i32 noundef %20)
  %21 = load i64, ptr %4, align 8, !tbaa !6
  call void @llvm.lifetime.end.p0(i64 4, ptr %6) #19
  call void @llvm.lifetime.end.p0(i64 8, ptr %5) #19
  ret i64 %21
}