; Function Attrs: nounwind sspstrong uwtable
define internal noundef i64 @ossl_ec_group_set_point_conversion_form(i64 noundef %0, i64 noundef returned %1) #0 {
  %3 = tail call ptr @rb_check_typeddata(i64 noundef %0, ptr noundef nonnull @ossl_ec_group_type) #7
  %4 = icmp eq ptr %3, null
  br i1 %4, label %5, label %7

5:                                                ; preds = %2
  %6 = load i64, ptr @eEC_GROUP, align 8, !tbaa !6
  tail call void (i64, ptr, ...) @ossl_raise(i64 noundef %6, ptr noundef nonnull @.str.59) #9
  unreachable

7:                                                ; preds = %2
  %8 = tail call i64 @rb_sym2id(i64 noundef %1) #7
  %9 = load i64, ptr @ID_uncompressed, align 8, !tbaa !6
  %10 = icmp eq i64 %8, %9
  br i1 %10, label %parse_point_conversion_form_symbol.exit, label %11

11:                                               ; preds = %7
  %12 = load i64, ptr @ID_compressed, align 8, !tbaa !6
  %13 = icmp eq i64 %8, %12
  br i1 %13, label %parse_point_conversion_form_symbol.exit, label %14

14:                                               ; preds = %11
  %15 = load i64, ptr @ID_hybrid, align 8, !tbaa !6
  %16 = icmp eq i64 %8, %15
  br i1 %16, label %parse_point_conversion_form_symbol.exit, label %17

17:                                               ; preds = %14
  %18 = load i64, ptr @rb_eArgError, align 8, !tbaa !6
  tail call void (i64, ptr, ...) @ossl_raise(i64 noundef %18, ptr noundef nonnull @.str.91, i64 noundef %1) #9
  unreachable

parse_point_conversion_form_symbol.exit:          ; preds = %7, %11, %14
  %.0.i = phi i32 [ 4, %7 ], [ 2, %11 ], [ 6, %14 ]
  tail call void @EC_GROUP_set_point_conversion_form(ptr noundef nonnull %3, i32 noundef %.0.i) #7
  ret i64 %1
}